(dp0
I2016
ccopy_reg
_reconstructor
p1
(c__main__
SeasonData
p2
c__builtin__
tuple
p3
(I2016
ccollections
OrderedDict
p4
((lp5
(lp6
S'Group stage'
p7
ag1
(c__main__
RoundData
p8
g3
(I2000634
(lp9
I2015665
aI2015666
aI2015667
aI2015668
aI2015669
aI2015670
aI2015671
aI2015672
aI2015673
aI2015674
aI2015675
aI2015676
aI2015677
aI2015678
aI2015679
aI2015680
aI2015681
aI2015682
aI2015683
aI2015684
aI2015685
aI2015686
aI2015687
aI2015688
aI2015689
aI2015690
aI2015691
aI2015692
aI2015693
aI2015694
aI2015695
aI2015696
a(dp10
tp11
tp12
Rp13
aa(lp14
S'Round of 16'
p15
ag1
(g8
g3
(I2000635
(lp16
I2015763
aI2015765
aI2015761
aI2015762
aI2015766
aI2015767
aI2015764
aI2015768
aI2015771
aI2015772
a(dp17
tp18
tp19
Rp20
aa(lp21
S'Quarter-finals'
p22
ag1
(g8
g3
(I2000636
(lp23
I2015778
aI2015779
aI2015777
aI2015780
aI2015782
aI2015783
aI2015781
aI2015784
a(dp24
tp25
tp26
Rp27
aa(lp28
S'Semi-finals'
p29
ag1
(g8
g3
(I2000637
(lp30
I2015785
aI2015786
aI2015787
aI2015788
a(dp31
tp32
tp33
Rp34
aa(lp35
S'Final'
p36
ag1
(g8
g3
(I2000638
(lp37
I2015789
a(dp38
tp39
tp40
Rp41
aatp42
Rp43
tp44
tp45
Rp46
sI2007
g1
(g2
g3
(I2006
g4
((lp47
(lp48
g7
ag1
(g8
g3
(I2357
(lp49
I1116314
aI1116315
aI1116316
aI1116317
aI1116318
aI1116319
aI1116320
aI1116321
aI1116322
aI1116323
aI1116324
aI1116325
aI1116326
aI1116327
aI1116328
aI1116329
aI1116338
aI1116339
aI1116340
aI1116341
aI1116343
aI1116342
aI1116344
aI1116345
aI1116330
aI1116331
aI1116332
aI1116333
aI1116334
aI1116335
aI1116336
aI1116337
aI1116354
aI1116355
aI1116356
aI1116357
aI1116358
aI1116359
aI1116360
aI1116361
aI1116346
aI1116347
aI1116348
aI1116349
aI1116350
aI1116351
aI1116352
aI1116353
aI1116362
aI1116363
aI1116364
aI1116365
aI1116366
aI1116367
aI1116368
aI1116369
aI1116370
aI1116371
aI1116372
aI1116373
aI1116374
aI1116375
aI1116376
aI1116377
aI1116386
aI1116387
aI1116388
aI1116389
aI1116390
aI1116391
aI1116392
aI1116393
aI1116378
aI1116379
aI1116381
aI1116380
aI1116382
aI1116383
aI1116384
aI1116385
aI1116394
aI1116395
aI1116396
aI1116397
aI1116398
aI1116399
aI1116400
aI1116401
aI1116402
aI1116403
aI1116404
aI1116405
aI1116406
aI1116407
aI1116408
aI1116409
a(dp50
tp51
tp52
Rp53
aa(lp54
g15
ag1
(g8
g3
(I2358
(lp55
I85504
aI85506
aI85508
aI85510
aI85512
aI85514
aI85516
aI85518
aI85513
aI85515
aI85517
aI85519
aI85505
aI85507
aI85509
aI85511
a(dp56
tp57
tp58
Rp59
aa(lp60
g22
ag1
(g8
g3
(I2359
(lp61
I300128
aI300130
aI300132
aI300134
aI300133
aI300135
aI300129
aI300131
a(dp62
tp63
tp64
Rp65
aa(lp66
g29
ag1
(g8
g3
(I2360
(lp67
I300138
aI300136
aI300137
aI300139
a(dp68
tp69
tp70
Rp71
aa(lp72
g36
ag1
(g8
g3
(I2361
(lp73
I300099
a(dp74
tp75
tp76
Rp77
aatp78
Rp79
tp80
tp81
Rp82
sI2008
g1
(g2
g3
(I2008
g4
((lp83
(lp84
g7
ag1
(g8
g3
(I15105
(lp85
I301167
aI301168
aI301169
aI301170
aI301171
aI301172
aI301173
aI301174
aI301159
aI301160
aI301161
aI301162
aI301163
aI301164
aI301165
aI301166
aI301183
aI301184
aI301185
aI301186
aI301188
aI301187
aI301189
aI301190
aI301175
aI301176
aI301177
aI301178
aI301179
aI301180
aI301181
aI301182
aI301199
aI301200
aI301201
aI301202
aI301203
aI301204
aI301205
aI301206
aI301191
aI301192
aI301193
aI301194
aI301195
aI301196
aI301197
aI301198
aI301215
aI301216
aI301217
aI301218
aI301219
aI301220
aI301221
aI301222
aI301207
aI301208
aI301209
aI301210
aI301211
aI301212
aI301213
aI301214
aI301231
aI301232
aI301233
aI301234
aI301235
aI301236
aI301237
aI301238
aI301223
aI301224
aI301225
aI301226
aI301227
aI301228
aI301229
aI301230
aI301253
aI301254
aI301247
aI301248
aI301249
aI301250
aI301251
aI301252
aI301239
aI301240
aI301241
aI301242
aI301243
aI301244
aI301245
aI301246
a(dp86
tp87
tp88
Rp89
aa(lp90
g15
ag1
(g8
g3
(I15106
(lp91
I301889
aI301890
aI301891
aI301893
aI301887
aI301888
aI301892
aI301894
aI301896
aI301898
aI301899
aI301900
aI301895
aI301897
aI301901
aI301902
a(dp92
tp93
tp94
Rp95
aa(lp96
g22
ag1
(g8
g3
(I15107
(lp97
I301904
aI301905
aI301903
aI301906
aI301907
aI301910
aI301908
aI301909
a(dp98
tp99
tp100
Rp101
aa(lp102
g29
ag1
(g8
g3
(I15108
(lp103
I301912
aI301911
aI301914
aI301913
a(dp104
tp105
tp106
Rp107
aa(lp108
g36
ag1
(g8
g3
(I15109
(lp109
I301604
a(dp110
tp111
tp112
Rp113
aatp114
Rp115
tp116
tp117
Rp118
sI2009
g1
(g2
g3
(I2009
g4
((lp119
(lp120
g7
ag1
(g8
g3
(I15276
(lp121
I302697
aI302698
aI302699
aI302700
aI302701
aI302702
aI302703
aI302704
aI302689
aI302690
aI302691
aI302692
aI302693
aI302694
aI302695
aI302696
aI302713
aI302714
aI302715
aI302716
aI302717
aI302718
aI302720
aI302719
aI302705
aI302706
aI302707
aI302708
aI302709
aI302710
aI302711
aI302712
aI302729
aI302730
aI302731
aI302732
aI302733
aI302734
aI302735
aI302736
aI302721
aI302722
aI302723
aI302724
aI302725
aI302726
aI302727
aI302728
aI302745
aI302746
aI302747
aI302748
aI302749
aI302750
aI302751
aI302752
aI302737
aI302738
aI302739
aI302740
aI302741
aI302742
aI302743
aI302744
aI302761
aI302762
aI302763
aI302764
aI302765
aI302766
aI302767
aI302768
aI302753
aI302754
aI302755
aI302756
aI302757
aI302758
aI302759
aI302760
aI302777
aI302778
aI302779
aI302780
aI302781
aI302782
aI302783
aI302784
aI302769
aI302770
aI302771
aI302772
aI302773
aI302774
aI302775
aI302776
a(dp122
tp123
tp124
Rp125
aa(lp126
g15
ag1
(g8
g3
(I15277
(lp127
I302788
aI302789
aI302791
aI302792
aI302785
aI302786
aI302787
aI302790
aI302794
aI302797
aI302798
aI302799
aI302793
aI302795
aI302796
aI302800
a(dp128
tp129
tp130
Rp131
aa(lp132
g22
ag1
(g8
g3
(I15278
(lp133
I302801
aI302802
aI302803
aI302804
aI302805
aI302806
aI302807
aI302808
a(dp134
tp135
tp136
Rp137
aa(lp138
g29
ag1
(g8
g3
(I15279
(lp139
I302809
aI302810
aI302811
aI302812
a(dp140
tp141
tp142
Rp143
aa(lp144
g36
ag1
(g8
g3
(I15280
(lp145
I302813
a(dp146
tp147
tp148
Rp149
aatp150
Rp151
tp152
tp153
Rp154
sI2010
g1
(g2
g3
(I2010
g4
((lp155
(lp156
g7
ag1
(g8
g3
(I2000028
(lp157
I2000372
aI2000373
aI2000423
aI2000398
aI2000376
aI2000377
aI2000379
aI2000378
aI2000365
aI2000364
aI2000366
aI2000367
aI2000368
aI2000369
aI2000370
aI2000371
aI2000388
aI2000389
aI2000390
aI2000391
aI2000392
aI2000393
aI2000395
aI2000394
aI2000380
aI2000381
aI2000431
aI2000374
aI2000384
aI2000385
aI2000386
aI2000387
aI2000404
aI2000405
aI2000406
aI2000407
aI2000409
aI2000408
aI2000410
aI2000411
aI2000396
aI2000397
aI2000454
aI2000455
aI2000400
aI2000401
aI2000402
aI2000403
aI2000420
aI2000421
aI2000383
aI2000382
aI2000424
aI2000425
aI2000426
aI2000427
aI2000412
aI2000413
aI2000414
aI2000415
aI2000416
aI2000417
aI2000418
aI2000419
aI2000436
aI2000437
aI2000439
aI2000438
aI2000440
aI2000441
aI2000442
aI2000443
aI2000428
aI2000429
aI2000422
aI2000399
aI2000432
aI2000433
aI2000434
aI2000435
aI2000452
aI2000453
aI2000375
aI2000430
aI2000456
aI2000457
aI2000458
aI2000459
aI2000444
aI2000445
aI2000446
aI2000447
aI2000448
aI2000449
aI2000450
aI2000451
a(dp158
tp159
tp160
Rp161
aa(lp162
g15
ag1
(g8
g3
(I2000029
(lp163
I2000465
aI2000467
aI2000463
aI2000466
aI2000460
aI2000461
aI2000464
aI2000462
aI2000470
aI2000475
aI2000469
aI2000471
aI2000468
aI2000474
aI2000472
aI2000473
a(dp164
tp165
tp166
Rp167
aa(lp168
g22
ag1
(g8
g3
(I2000030
(lp169
I2000476
aI2000477
aI2000478
aI2000479
aI2000481
aI2000480
aI2000482
aI2000483
a(dp170
tp171
tp172
Rp173
aa(lp174
g29
ag1
(g8
g3
(I2000031
(lp175
I2000487
aI2000486
aI2000485
aI2000484
a(dp176
tp177
tp178
Rp179
aa(lp180
g36
ag1
(g8
g3
(I2000032
(lp181
I2000488
a(dp182
tp183
tp184
Rp185
aatp186
Rp187
tp188
tp189
Rp190
sI2011
g1
(g2
g3
(I2011
g4
((lp191
(lp192
g7
ag1
(g8
g3
(I2000118
(lp193
I2002825
aI2002826
aI2002827
aI2002828
aI2002829
aI2002830
aI2002831
aI2002832
aI2002817
aI2002818
aI2002819
aI2002820
aI2002821
aI2002822
aI2002823
aI2002824
aI2002841
aI2002842
aI2002844
aI2002843
aI2002845
aI2002846
aI2002847
aI2002848
aI2002833
aI2002834
aI2002835
aI2002836
aI2002837
aI2002838
aI2002839
aI2002840
aI2002857
aI2002858
aI2002859
aI2002860
aI2002861
aI2002862
aI2002863
aI2002864
aI2002849
aI2002850
aI2002851
aI2002852
aI2002853
aI2002854
aI2002855
aI2002856
aI2002873
aI2002874
aI2002875
aI2002876
aI2002877
aI2002878
aI2002879
aI2002880
aI2002865
aI2002866
aI2002867
aI2002868
aI2002869
aI2002870
aI2002871
aI2002872
aI2002889
aI2002890
aI2002891
aI2002892
aI2002893
aI2002894
aI2002895
aI2002896
aI2002881
aI2002882
aI2002883
aI2002884
aI2002885
aI2002886
aI2002888
aI2002887
aI2002905
aI2002906
aI2002907
aI2002908
aI2002909
aI2002910
aI2002911
aI2002912
aI2002897
aI2002898
aI2002899
aI2002900
aI2002901
aI2002902
aI2002903
aI2002904
a(dp194
tp195
tp196
Rp197
aa(lp198
g15
ag1
(g8
g3
(I2000119
(lp199
I2003752
aI2003755
aI2003751
aI2003758
aI2003754
aI2003757
aI2003753
aI2003756
aI2003761
aI2003764
aI2003762
aI2003765
aI2003759
aI2003766
aI2003760
aI2003763
a(dp200
tp201
tp202
Rp203
aa(lp204
g22
ag1
(g8
g3
(I2000120
(lp205
I2007730
aI2007733
aI2007731
aI2007732
aI2007734
aI2007737
aI2007735
aI2007736
a(dp206
tp207
tp208
Rp209
aa(lp210
g29
ag1
(g8
g3
(I2000121
(lp211
I2007743
aI2007742
aI2007745
aI2007744
a(dp212
tp213
tp214
Rp215
aa(lp216
g36
ag1
(g8
g3
(I2000122
(lp217
I2003352
a(dp218
tp219
tp220
Rp221
aatp222
Rp223
tp224
tp225
Rp226
sI2012
g1
(g2
g3
(I2012
g4
((lp227
(lp228
g7
ag1
(g8
g3
(I2000263
(lp229
I2007569
aI2007570
aI2007571
aI2007572
aI2007573
aI2007574
aI2007575
aI2007576
aI2007577
aI2007578
aI2007579
aI2007580
aI2007581
aI2007582
aI2007583
aI2007584
aI2007585
aI2007586
aI2007588
aI2007587
aI2007589
aI2007590
aI2007591
aI2007592
aI2007593
aI2007594
aI2007595
aI2007596
aI2007597
aI2007598
aI2007599
aI2007600
aI2007601
aI2007602
aI2007603
aI2007604
aI2007605
aI2007606
aI2007607
aI2007608
aI2007609
aI2007610
aI2007611
aI2007612
aI2007613
aI2007614
aI2007615
aI2007616
aI2007617
aI2007618
aI2007619
aI2007620
aI2007621
aI2007622
aI2007623
aI2007624
aI2007625
aI2007626
aI2007627
aI2007628
aI2007629
aI2007630
aI2007631
aI2007632
aI2007633
aI2007634
aI2007635
aI2007636
aI2007637
aI2007638
aI2007639
aI2007640
aI2007641
aI2007642
aI2007643
aI2007644
aI2007646
aI2007645
aI2007648
aI2007647
aI2007649
aI2007650
aI2007651
aI2007652
aI2007653
aI2007654
aI2007655
aI2007656
aI2007657
aI2007658
aI2007659
aI2007660
aI2007661
aI2007662
aI2007663
aI2007664
a(dp230
tp231
tp232
Rp233
aa(lp234
g15
ag1
(g8
g3
(I2000264
(lp235
I2007665
aI2007671
aI2007667
aI2007669
aI2007672
aI2007666
aI2007668
aI2007670
aI2007673
aI2007679
aI2007675
aI2007677
aI2007674
aI2007680
aI2007676
aI2007678
a(dp236
tp237
tp238
Rp239
aa(lp240
g22
ag1
(g8
g3
(I2000265
(lp241
I2007681
aI2007683
aI2007682
aI2007686
aI2007684
aI2007688
aI2007685
aI2007687
a(dp242
tp243
tp244
Rp245
aa(lp246
g29
ag1
(g8
g3
(I2000266
(lp247
I2007690
aI2007689
aI2007692
aI2007691
a(dp248
tp249
tp250
Rp251
aa(lp252
g36
ag1
(g8
g3
(I2000267
(lp253
I2007693
a(dp254
tp255
tp256
Rp257
aatp258
Rp259
tp260
tp261
Rp262
sI2013
g1
(g2
g3
(I2013
g4
((lp263
(lp264
g7
ag1
(g8
g3
(I2000347
(lp265
I2009496
aI2009497
aI2009498
aI2009499
aI2009500
aI2009501
aI2009502
aI2009503
aI2009488
aI2009489
aI2009490
aI2009491
aI2009492
aI2009493
aI2009494
aI2009495
aI2009512
aI2009513
aI2009514
aI2009515
aI2009517
aI2009516
aI2009518
aI2009519
aI2009504
aI2009505
aI2009506
aI2009507
aI2009509
aI2009508
aI2009510
aI2009511
aI2009528
aI2009529
aI2009530
aI2009531
aI2009532
aI2009533
aI2009534
aI2009535
aI2009520
aI2009521
aI2009522
aI2009523
aI2009524
aI2009525
aI2009526
aI2009527
aI2009544
aI2009545
aI2009546
aI2009547
aI2009548
aI2009549
aI2009550
aI2009551
aI2009536
aI2009537
aI2009538
aI2009539
aI2009540
aI2009541
aI2009542
aI2009543
aI2009560
aI2009561
aI2009562
aI2009563
aI2009564
aI2009565
aI2009566
aI2009567
aI2009552
aI2009553
aI2009554
aI2009555
aI2009556
aI2009557
aI2009558
aI2009559
aI2009576
aI2009577
aI2009578
aI2009579
aI2009580
aI2009581
aI2009582
aI2009583
aI2009568
aI2009569
aI2009570
aI2009571
aI2009572
aI2009573
aI2009574
aI2009575
a(dp266
tp267
tp268
Rp269
aa(lp270
g15
ag1
(g8
g3
(I2000348
(lp271
I2009585
aI2009586
aI2009589
aI2009591
aI2009587
aI2009588
aI2009584
aI2009590
aI2009597
aI2009599
aI2009592
aI2009595
aI2009594
aI2009596
aI2009593
aI2009598
a(dp272
tp273
tp274
Rp275
aa(lp276
g22
ag1
(g8
g3
(I2000349
(lp277
I2009602
aI2009603
aI2009600
aI2009601
aI2009606
aI2009607
aI2009604
aI2009605
a(dp278
tp279
tp280
Rp281
aa(lp282
g29
ag1
(g8
g3
(I2000350
(lp283
I2009609
aI2009608
aI2009611
aI2009610
a(dp284
tp285
tp286
Rp287
aa(lp288
g36
ag1
(g8
g3
(I2000351
(lp289
I2009612
a(dp290
tp291
tp292
Rp293
aatp294
Rp295
tp296
tp297
Rp298
sI2014
g1
(g2
g3
(I2014
g4
((lp299
(lp300
g7
ag1
(g8
g3
(I2000479
(lp301
I2011767
aI2011768
aI2011769
aI2011770
aI2011771
aI2011772
aI2011773
aI2011774
aI2011759
aI2011760
aI2011761
aI2011762
aI2011763
aI2011764
aI2011765
aI2011766
aI2011783
aI2011784
aI2011785
aI2011786
aI2011787
aI2011788
aI2011789
aI2011790
aI2011775
aI2011776
aI2011777
aI2011778
aI2011779
aI2011780
aI2011782
aI2011781
aI2011799
aI2011800
aI2011801
aI2011802
aI2011803
aI2011804
aI2011805
aI2011806
aI2011791
aI2011792
aI2011793
aI2011794
aI2011795
aI2011796
aI2011797
aI2011798
aI2011815
aI2011816
aI2011817
aI2011818
aI2011819
aI2011820
aI2011821
aI2011822
aI2011807
aI2011808
aI2011809
aI2011810
aI2011811
aI2011812
aI2011813
aI2011814
aI2011831
aI2011832
aI2011833
aI2011834
aI2011836
aI2011835
aI2011837
aI2011838
aI2011823
aI2011824
aI2011825
aI2011826
aI2011827
aI2011828
aI2011829
aI2011830
aI2011847
aI2011848
aI2011850
aI2011851
aI2011852
aI2011853
aI2011854
aI2011849
aI2011839
aI2011840
aI2011841
aI2011842
aI2011843
aI2011844
aI2011845
aI2011846
a(dp302
tp303
tp304
Rp305
aa(lp306
g15
ag1
(g8
g3
(I2000480
(lp307
I2011855
aI2011860
aI2011858
aI2011859
aI2011857
aI2011856
aI2011861
aI2011862
aI2011864
aI2011869
aI2011865
aI2011870
aI2011867
aI2011868
aI2011863
aI2011866
a(dp308
tp309
tp310
Rp311
aa(lp312
g22
ag1
(g8
g3
(I2000481
(lp313
I2011871
aI2011874
aI2011872
aI2011873
aI2011875
aI2011878
aI2011876
aI2011877
a(dp314
tp315
tp316
Rp317
aa(lp318
g29
ag1
(g8
g3
(I2000482
(lp319
I2011879
aI2011880
aI2011881
aI2011882
a(dp320
tp321
tp322
Rp323
aa(lp324
g36
ag1
(g8
g3
(I2000483
(lp325
I2011883
a(dp326
tp327
tp328
Rp329
aatp330
Rp331
tp332
tp333
Rp334
sI2015
g1
(g2
g3
(I2015
g4
((lp335
(lp336
g7
ag1
(g8
g3
(I2000548
(lp337
I2014315
aI2014316
aI2014317
aI2014318
aI2014319
aI2014320
aI2014321
aI2014322
aI2014307
aI2014308
aI2014309
aI2014310
aI2014311
aI2014312
aI2014313
aI2014314
aI2014332
aI2014331
aI2014333
aI2014334
aI2014335
aI2014336
aI2014337
aI2014338
aI2014323
aI2014324
aI2014325
aI2014326
aI2014327
aI2014328
aI2014329
aI2014330
aI2014347
aI2014348
aI2014349
aI2014350
aI2014351
aI2014352
aI2014353
aI2014354
aI2014339
aI2014340
aI2014341
aI2014342
aI2014343
aI2014344
aI2014345
aI2014346
aI2014363
aI2014364
aI2014365
aI2014366
aI2014367
aI2014368
aI2014369
aI2014370
aI2014355
aI2014356
aI2014357
aI2014358
aI2014359
aI2014360
aI2014361
aI2014362
aI2014379
aI2014380
aI2014381
aI2014382
aI2014383
aI2014384
aI2014385
aI2014386
aI2014371
aI2014372
aI2014373
aI2014374
aI2014376
aI2014375
aI2014377
aI2014378
aI2014395
aI2014396
aI2014397
aI2014398
aI2014399
aI2014400
aI2014401
aI2014402
aI2014387
aI2014388
aI2014389
aI2014390
aI2014391
aI2014392
aI2014393
aI2014394
a(dp338
tp339
tp340
Rp341
aa(lp342
g15
ag1
(g8
g3
(I2000549
(lp343
I2014403
aI2014410
aI2014406
aI2014409
aI2014404
aI2014408
aI2014405
aI2014407
aI2014412
aI2014415
aI2014413
aI2014416
aI2014411
aI2014417
aI2014414
aI2014418
a(dp344
tp345
tp346
Rp347
aa(lp348
g22
ag1
(g8
g3
(I2000550
(lp349
I2014420
aI2014422
aI2014419
aI2014421
aI2014423
aI2014425
aI2014424
aI2014426
a(dp350
tp351
tp352
Rp353
aa(lp354
g29
ag1
(g8
g3
(I2000551
(lp355
I2014427
aI2014428
aI2014429
aI2014430
a(dp356
tp357
tp358
Rp359
aa(lp360
g36
ag1
(g8
g3
(I2000552
(lp361
I2015227
a(dp362
tp363
tp364
Rp365
aatp366
Rp367
tp368
tp369
Rp370
s.